; Function Attrs: nounwind uwtable
define range(i32 -2147483647, -2147483648) i32 @Kit_TruthLitNum(ptr noundef %0, i32 noundef %1, ptr noundef %2) local_unnamed_addr #8 {
  %4 = tail call i32 @Kit_TruthIsop(ptr noundef %0, i32 noundef %1, ptr noundef %2, i32 noundef 1) #21
  %5 = icmp eq i32 %4, -1
  br i1 %5, label %17, label %6

6:                                                ; preds = %3
  %7 = getelementptr i8, ptr %2, i64 4
  %.val = load i32, ptr %7, align 4, !tbaa !20
  %8 = icmp sgt i32 %.val, 65536
  br i1 %8, label %17, label %9

9:                                                ; preds = %6
  %10 = tail call ptr @Kit_SopFactor(ptr noundef nonnull %2, i32 noundef %4, i32 noundef %1, ptr noundef nonnull %2) #21
  %11 = getelementptr i8, ptr %10, i64 4
  %.val13 = load i32, ptr %11, align 4, !tbaa !3
  %12 = getelementptr i8, ptr %10, i64 8
  %.val14 = load i32, ptr %12, align 8, !tbaa !11
  %reass.sub = sub i32 %.val14, %.val13
  %13 = add i32 %reass.sub, 1
  %14 = getelementptr inbounds nuw i8, ptr %10, i64 16
  %15 = load ptr, ptr %14, align 8, !tbaa !13
  %.not.i = icmp eq ptr %15, null
  br i1 %.not.i, label %Kit_GraphFree.exit, label %16

16:                                               ; preds = %9
  tail call void @free(ptr noundef nonnull %15) #21
  br label %Kit_GraphFree.exit

Kit_GraphFree.exit:                               ; preds = %9, %16
  tail call void @free(ptr noundef nonnull %10) #21
  br label %17

17:                                               ; preds = %3, %6, %Kit_GraphFree.exit
  %.0 = phi i32 [ %13, %Kit_GraphFree.exit ], [ -1, %6 ], [ -1, %3 ]
  ret i32 %.0
}